target datalayout = "e-m:e-p270:32:32-p271:32:32-p272:64:64-i64:64-i128:128-f80:128-n8:16:32:64-S128"
target triple = "x86_64-pc-linux-gnu"

@stderr = external global ptr, align 8
@.str.56 = private unnamed_addr constant [27 x i8] c"%s: ERROR: unexpected EOF\0A\00", align 1
@is_big_endian_host_ = internal global i32 0, align 4

; Function Attrs: alwaysinline
define internal i64 @fread.inline(ptr noalias %0, i64 %1, i64 %2, ptr noalias %3) #6 {
  %5 = alloca i64, align 8
  %6 = alloca ptr, align 8
  %7 = alloca i64, align 8
  %8 = alloca i64, align 8
  %9 = alloca ptr, align 8
  %10 = alloca i64, align 8
  %11 = alloca i32, align 4
  store ptr %0, ptr %6, align 8, !tbaa !48
  store i64 %1, ptr %7, align 8, !tbaa !9
  store i64 %2, ptr %8, align 8, !tbaa !9
  store ptr %3, ptr %9, align 8, !tbaa !4
  call void @llvm.lifetime.start.p0(i64 8, ptr %10) #14
  %12 = load ptr, ptr %6, align 8, !tbaa !48
  %13 = call i64 @llvm.objectsize.i64.p0(ptr %12, i1 false, i1 true, i1 false)
  store i64 %13, ptr %10, align 8, !tbaa !9
  %14 = load i64, ptr %8, align 8, !tbaa !9
  %15 = load i64, ptr %10, align 8, !tbaa !9
  %16 = load i64, ptr %7, align 8, !tbaa !9
  %17 = udiv i64 %15, %16
  %18 = icmp ule i64 %14, %17
  %19 = zext i1 %18 to i32
  %20 = call i1 @llvm.is.constant.i32(i32 %19)
  br i1 %20, label %21, label %33

21:                                               ; preds = %4
  %22 = load i64, ptr %8, align 8, !tbaa !9
  %23 = load i64, ptr %10, align 8, !tbaa !9
  %24 = load i64, ptr %7, align 8, !tbaa !9
  %25 = udiv i64 %23, %24
  %26 = icmp ule i64 %22, %25
  br i1 %26, label %27, label %33

27:                                               ; preds = %21
  %28 = load ptr, ptr %6, align 8, !tbaa !48
  %29 = load i64, ptr %7, align 8, !tbaa !9
  %30 = load i64, ptr %8, align 8, !tbaa !9
  %31 = load ptr, ptr %9, align 8, !tbaa !4
  %32 = call i64 @fread(ptr noundef %28, i64 noundef %29, i64 noundef %30, ptr noundef %31)
  store i64 %32, ptr %5, align 8
  store i32 1, ptr %11, align 4
  br label %61

33:                                               ; preds = %21, %4
  %34 = load i64, ptr %8, align 8, !tbaa !9
  %35 = load i64, ptr %10, align 8, !tbaa !9
  %36 = load i64, ptr %7, align 8, !tbaa !9
  %37 = udiv i64 %35, %36
  %38 = icmp ule i64 %34, %37
  %39 = zext i1 %38 to i32
  %40 = call i1 @llvm.is.constant.i32(i32 %39)
  br i1 %40, label %41, label %54

41:                                               ; preds = %33
  %42 = load i64, ptr %8, align 8, !tbaa !9
  %43 = load i64, ptr %10, align 8, !tbaa !9
  %44 = load i64, ptr %7, align 8, !tbaa !9
  %45 = udiv i64 %43, %44
  %46 = icmp ule i64 %42, %45
  br i1 %46, label %54, label %47

47:                                               ; preds = %41
  %48 = load ptr, ptr %6, align 8, !tbaa !48
  %49 = load i64, ptr %10, align 8, !tbaa !9
  %50 = load i64, ptr %7, align 8, !tbaa !9
  %51 = load i64, ptr %8, align 8, !tbaa !9
  %52 = load ptr, ptr %9, align 8, !tbaa !4
  %53 = call i64 @__fread_chk(ptr noundef %48, i64 noundef %49, i64 noundef %50, i64 noundef %51, ptr noundef %52)
  store i64 %53, ptr %5, align 8
  store i32 1, ptr %11, align 4
  br label %61

54:                                               ; preds = %41, %33
  %55 = load ptr, ptr %6, align 8, !tbaa !48
  %56 = load i64, ptr %10, align 8, !tbaa !9
  %57 = load i64, ptr %7, align 8, !tbaa !9
  %58 = load i64, ptr %8, align 8, !tbaa !9
  %59 = load ptr, ptr %9, align 8, !tbaa !4
  %60 = call i64 @__fread_chk(ptr noundef %55, i64 noundef %56, i64 noundef %57, i64 noundef %58, ptr noundef %59)
  store i64 %60, ptr %5, align 8
  store i32 1, ptr %11, align 4
  br label %61

61:                                               ; preds = %54, %47, %27
  call void @llvm.lifetime.end.p0(i64 8, ptr %10) #14
  %62 = load i64, ptr %5, align 8
  ret i64 %62
}

; Function Attrs: nounwind sspstrong uwtable
define internal i32 @read_bytes(ptr noundef %0, ptr noundef %1, i64 noundef %2, i32 noundef %3, ptr noundef %4) #0 {
  %6 = alloca i32, align 4
  %7 = alloca ptr, align 8
  %8 = alloca ptr, align 8
  %9 = alloca i64, align 8
  %10 = alloca i32, align 4
  %11 = alloca ptr, align 8
  %12 = alloca i64, align 8
  %13 = alloca i32, align 4
  store ptr %0, ptr %7, align 8, !tbaa !4
  store ptr %1, ptr %8, align 8, !tbaa !11
  store i64 %2, ptr %9, align 8, !tbaa !9
  store i32 %3, ptr %10, align 4, !tbaa !13
  store ptr %4, ptr %11, align 8, !tbaa !11
  call void @llvm.lifetime.start.p0(i64 8, ptr %12) #14
  %14 = load ptr, ptr %8, align 8, !tbaa !11
  %15 = load i64, ptr %9, align 8, !tbaa !9
  %16 = load ptr, ptr %7, align 8, !tbaa !4
  %17 = call i64 @fread.inline(ptr noundef %14, i64 noundef 1, i64 noundef %15, ptr noundef %16)
  store i64 %17, ptr %12, align 8, !tbaa !9
  %18 = load i64, ptr %12, align 8, !tbaa !9
  %19 = icmp eq i64 %18, 0
  br i1 %19, label %20, label %27

20:                                               ; preds = %5
  %21 = load i32, ptr %10, align 4, !tbaa !13
  %22 = icmp ne i32 %21, 0
  br i1 %22, label %26, label %23

23:                                               ; preds = %20
  %24 = load ptr, ptr @stderr, align 8, !tbaa !4
  %25 = load ptr, ptr %11, align 8, !tbaa !11
  call void (ptr, i32, ptr, ...) @flac__utils_printf(ptr noundef %24, i32 noundef 1, ptr noundef @.str.56, ptr noundef %25)
  store i32 0, ptr %6, align 4
  store i32 1, ptr %13, align 4
  br label %35

26:                                               ; preds = %20
  store i32 1, ptr %6, align 4
  store i32 1, ptr %13, align 4
  br label %35

27:                                               ; preds = %5
  %28 = load i64, ptr %12, align 8, !tbaa !9
  %29 = load i64, ptr %9, align 8, !tbaa !9
  %30 = icmp ult i64 %28, %29
  br i1 %30, label %31, label %34

31:                                               ; preds = %27
  %32 = load ptr, ptr @stderr, align 8, !tbaa !4
  %33 = load ptr, ptr %11, align 8, !tbaa !11
  call void (ptr, i32, ptr, ...) @flac__utils_printf(ptr noundef %32, i32 noundef 1, ptr noundef @.str.56, ptr noundef %33)
  store i32 0, ptr %6, align 4
  store i32 1, ptr %13, align 4
  br label %35

34:                                               ; preds = %27
  store i32 1, ptr %6, align 4
  store i32 1, ptr %13, align 4
  br label %35

35:                                               ; preds = %34, %31, %26, %23
  call void @llvm.lifetime.end.p0(i64 8, ptr %12) #14
  %36 = load i32, ptr %6, align 4
  ret i32 %36
}

; Function Attrs: nounwind sspstrong uwtable
define internal i32 @read_uint32(ptr noundef %0, i32 noundef %1, ptr noundef %2, ptr noundef %3) #0 {
  %5 = alloca i32, align 4
  %6 = alloca ptr, align 8
  %7 = alloca i32, align 4
  %8 = alloca ptr, align 8
  %9 = alloca ptr, align 8
  %10 = alloca i8, align 1
  %11 = alloca ptr, align 8
  store ptr %0, ptr %6, align 8, !tbaa !4
  store i32 %1, ptr %7, align 4, !tbaa !13
  store ptr %2, ptr %8, align 8, !tbaa !49
  store ptr %3, ptr %9, align 8, !tbaa !11
  %12 = load ptr, ptr %6, align 8, !tbaa !4
  %13 = load ptr, ptr %8, align 8, !tbaa !49
  %14 = load ptr, ptr %9, align 8, !tbaa !11
  %15 = call i32 @read_bytes(ptr noundef %12, ptr noundef %13, i64 noundef 4, i32 noundef 0, ptr noundef %14)
  %16 = icmp ne i32 %15, 0
  br i1 %16, label %18, label %17

17:                                               ; preds = %4
  store i32 0, ptr %5, align 4
  br label %47

18:                                               ; preds = %4
  %19 = load i32, ptr @is_big_endian_host_, align 4, !tbaa !13
  %20 = load i32, ptr %7, align 4, !tbaa !13
  %21 = icmp ne i32 %19, %20
  br i1 %21, label %22, label %46

22:                                               ; preds = %18
  call void @llvm.lifetime.start.p0(i64 1, ptr %10) #14
  call void @llvm.lifetime.start.p0(i64 8, ptr %11) #14
  %23 = load ptr, ptr %8, align 8, !tbaa !49
  store ptr %23, ptr %11, align 8, !tbaa !11
  %24 = load ptr, ptr %11, align 8, !tbaa !11
  %25 = getelementptr inbounds i8, ptr %24, i64 3
  %26 = load i8, ptr %25, align 1, !tbaa !17
  store i8 %26, ptr %10, align 1, !tbaa !17
  %27 = load ptr, ptr %11, align 8, !tbaa !11
  %28 = getelementptr inbounds i8, ptr %27, i64 0
  %29 = load i8, ptr %28, align 1, !tbaa !17
  %30 = load ptr, ptr %11, align 8, !tbaa !11
  %31 = getelementptr inbounds i8, ptr %30, i64 3
  store i8 %29, ptr %31, align 1, !tbaa !17
  %32 = load i8, ptr %10, align 1, !tbaa !17
  %33 = load ptr, ptr %11, align 8, !tbaa !11
  %34 = getelementptr inbounds i8, ptr %33, i64 0
  store i8 %32, ptr %34, align 1, !tbaa !17
  %35 = load ptr, ptr %11, align 8, !tbaa !11
  %36 = getelementptr inbounds i8, ptr %35, i64 2
  %37 = load i8, ptr %36, align 1, !tbaa !17
  store i8 %37, ptr %10, align 1, !tbaa !17
  %38 = load ptr, ptr %11, align 8, !tbaa !11
  %39 = getelementptr inbounds i8, ptr %38, i64 1
  %40 = load i8, ptr %39, align 1, !tbaa !17
  %41 = load ptr, ptr %11, align 8, !tbaa !11
  %42 = getelementptr inbounds i8, ptr %41, i64 2
  store i8 %40, ptr %42, align 1, !tbaa !17
  %43 = load i8, ptr %10, align 1, !tbaa !17
  %44 = load ptr, ptr %11, align 8, !tbaa !11
  %45 = getelementptr inbounds i8, ptr %44, i64 1
  store i8 %43, ptr %45, align 1, !tbaa !17
  call void @llvm.lifetime.end.p0(i64 8, ptr %11) #14
  call void @llvm.lifetime.end.p0(i64 1, ptr %10) #14
  br label %46

46:                                               ; preds = %22, %18
  store i32 1, ptr %5, align 4
  br label %47

47:                                               ; preds = %46, %17
  %48 = load i32, ptr %5, align 4
  ret i32 %48
}